target datalayout = "e-m:e-p270:32:32-p271:32:32-p272:64:64-i64:64-i128:128-f80:128-n8:16:32:64-S128"
target triple = "x86_64-pc-linux-gnu"

%class.Sample_TileMesh = type <{ %class.Sample, i8, i8, [2 x i8], float, ptr, ptr, ptr, ptr, ptr, ptr, %struct.rcConfig, i32, i32, i32, float, i32, [3 x float], [3 x float], float, float, i32, [4 x i8] }>
%class.Sample = type { ptr, ptr, ptr, ptr, ptr, i8, float, float, float, float, float, float, float, float, float, float, float, float, float, i32, i8, i8, i8, ptr, [9 x ptr], ptr, %class.SampleDebugDraw }
%class.SampleDebugDraw = type { %class.DebugDrawGL }
%class.DebugDrawGL = type { %struct.duDebugDraw }
%struct.duDebugDraw = type { ptr }
%struct.rcConfig = type { i32, i32, i32, i32, float, float, [3 x float], [3 x float], float, i32, i32, i32, i32, float, i32, i32, i32, float, float }
%class.NavMeshTileTool = type <{ %struct.SampleTool, ptr, [3 x float], i8, [3 x i8] }>
%struct.SampleTool = type { ptr }

@_ZTV10SampleTool = external unnamed_addr constant { [14 x ptr] }, align 8

; Function Attrs: mustprogress nounwind uwtable
define linkonce_odr dso_local void @_ZN10SampleToolC2Ev(ptr noundef nonnull align 8 dereferenceable(8) %0) unnamed_addr #0 comdat align 2 {
  %2 = alloca ptr, align 8
  store ptr %0, ptr %2, align 8
  %3 = load ptr, ptr %2, align 8
  store ptr getelementptr inbounds ({ [14 x ptr] }, ptr @_ZTV10SampleTool, i32 0, i32 0, i32 2), ptr %3, align 8
  ret void
}

; Function Attrs: mustprogress nounwind uwtable
define linkonce_odr dso_local void @_ZN15NavMeshTileToolC2Ev(ptr noundef nonnull align 8 dereferenceable(29) %0) unnamed_addr #0 comdat align 2 {
  %2 = alloca ptr, align 8
  store ptr %0, ptr %2, align 8
  %3 = load ptr, ptr %2, align 8
  call void @_ZN10SampleToolC2Ev(ptr noundef nonnull align 8 dereferenceable(8) %3) #9
  store ptr getelementptr inbounds ({ [14 x ptr] }, ptr @_ZTV15NavMeshTileTool, i32 0, i32 0, i32 2), ptr %3, align 8
  %4 = getelementptr inbounds %class.NavMeshTileTool, ptr %3, i32 0, i32 1
  store ptr null, ptr %4, align 8
  %5 = getelementptr inbounds %class.NavMeshTileTool, ptr %3, i32 0, i32 3
  store i8 0, ptr %5, align 4
  %6 = getelementptr inbounds %class.NavMeshTileTool, ptr %3, i32 0, i32 2
  %7 = getelementptr inbounds [3 x float], ptr %6, i64 0, i64 2
  store float 0.000000e+00, ptr %7, align 8
  %8 = getelementptr inbounds %class.NavMeshTileTool, ptr %3, i32 0, i32 2
  %9 = getelementptr inbounds [3 x float], ptr %8, i64 0, i64 1
  store float 0.000000e+00, ptr %9, align 4
  %10 = getelementptr inbounds %class.NavMeshTileTool, ptr %3, i32 0, i32 2
  %11 = getelementptr inbounds [3 x float], ptr %10, i64 0, i64 0
  store float 0.000000e+00, ptr %11, align 8
  ret void
}

; Function Attrs: mustprogress nounwind uwtable
define linkonce_odr dso_local noundef i32 @_Z6duRGBAiiii(i32 noundef %0, i32 noundef %1, i32 noundef %2, i32 noundef %3) #0 comdat {
  %5 = alloca i32, align 4
  %6 = alloca i32, align 4
  %7 = alloca i32, align 4
  %8 = alloca i32, align 4
  store i32 %0, ptr %5, align 4
  store i32 %1, ptr %6, align 4
  store i32 %2, ptr %7, align 4
  store i32 %3, ptr %8, align 4
  %9 = load i32, ptr %5, align 4
  %10 = load i32, ptr %6, align 4
  %11 = shl i32 %10, 8
  %12 = or i32 %9, %11
  %13 = load i32, ptr %7, align 4
  %14 = shl i32 %13, 16
  %15 = or i32 %12, %14
  %16 = load i32, ptr %8, align 4
  %17 = shl i32 %16, 24
  %18 = or i32 %15, %17
  ret i32 %18
}

; Function Attrs: mustprogress uwtable
define dso_local void @_ZN15Sample_TileMeshC2Ev(ptr noundef nonnull align 8 dereferenceable(404) %0) unnamed_addr #3 align 2 personality ptr @__gxx_personality_v0 {
  %2 = alloca ptr, align 8
  %3 = alloca ptr, align 8
  %4 = alloca i32, align 4
  store ptr %0, ptr %2, align 8
  %5 = load ptr, ptr %2, align 8
  call void @_ZN6SampleC2Ev(ptr noundef nonnull align 8 dereferenceable(200) %5)
  store ptr getelementptr inbounds ({ [23 x ptr] }, ptr @_ZTV15Sample_TileMesh, i32 0, i32 0, i32 2), ptr %5, align 8
  %6 = getelementptr inbounds %class.Sample_TileMesh, ptr %5, i32 0, i32 1
  store i8 0, ptr %6, align 8
  %7 = getelementptr inbounds %class.Sample_TileMesh, ptr %5, i32 0, i32 2
  store i8 1, ptr %7, align 1
  %8 = getelementptr inbounds %class.Sample_TileMesh, ptr %5, i32 0, i32 4
  store float 0.000000e+00, ptr %8, align 4
  %9 = getelementptr inbounds %class.Sample_TileMesh, ptr %5, i32 0, i32 5
  store ptr null, ptr %9, align 8
  %10 = getelementptr inbounds %class.Sample_TileMesh, ptr %5, i32 0, i32 6
  store ptr null, ptr %10, align 8
  %11 = getelementptr inbounds %class.Sample_TileMesh, ptr %5, i32 0, i32 7
  store ptr null, ptr %11, align 8
  %12 = getelementptr inbounds %class.Sample_TileMesh, ptr %5, i32 0, i32 8
  store ptr null, ptr %12, align 8
  %13 = getelementptr inbounds %class.Sample_TileMesh, ptr %5, i32 0, i32 9
  store ptr null, ptr %13, align 8
  %14 = getelementptr inbounds %class.Sample_TileMesh, ptr %5, i32 0, i32 10
  store ptr null, ptr %14, align 8
  %15 = getelementptr inbounds %class.Sample_TileMesh, ptr %5, i32 0, i32 12
  store i32 0, ptr %15, align 4
  %16 = getelementptr inbounds %class.Sample_TileMesh, ptr %5, i32 0, i32 13
  store i32 0, ptr %16, align 8
  %17 = getelementptr inbounds %class.Sample_TileMesh, ptr %5, i32 0, i32 14
  store i32 0, ptr %17, align 4
  %18 = getelementptr inbounds %class.Sample_TileMesh, ptr %5, i32 0, i32 15
  store float 3.200000e+01, ptr %18, align 8
  %19 = getelementptr inbounds %class.Sample_TileMesh, ptr %5, i32 0, i32 16
  %20 = invoke noundef i32 @_Z6duRGBAiiii(i32 noundef 0, i32 noundef 0, i32 noundef 0, i32 noundef 32)
          to label %21 unwind label %34

21:                                               ; preds = %1
  store i32 %20, ptr %19, align 4
  %22 = getelementptr inbounds %class.Sample_TileMesh, ptr %5, i32 0, i32 19
  store float 0.000000e+00, ptr %22, align 8
  %23 = getelementptr inbounds %class.Sample_TileMesh, ptr %5, i32 0, i32 20
  store float 0.000000e+00, ptr %23, align 4
  %24 = getelementptr inbounds %class.Sample_TileMesh, ptr %5, i32 0, i32 21
  store i32 0, ptr %24, align 8
  invoke void @_ZN6Sample19resetCommonSettingsEv(ptr noundef nonnull align 8 dereferenceable(200) %5)
          to label %25 unwind label %34

25:                                               ; preds = %21
  %26 = getelementptr inbounds %class.Sample_TileMesh, ptr %5, i32 0, i32 17
  %27 = getelementptr inbounds [3 x float], ptr %26, i64 0, i64 0
  call void @llvm.memset.p0.i64(ptr align 8 %27, i8 0, i64 12, i1 false)
  %28 = getelementptr inbounds %class.Sample_TileMesh, ptr %5, i32 0, i32 18
  %29 = getelementptr inbounds [3 x float], ptr %28, i64 0, i64 0
  call void @llvm.memset.p0.i64(ptr align 4 %29, i8 0, i64 12, i1 false)
  %30 = invoke noalias noundef nonnull ptr @_Znwm(i64 noundef 32) #11
          to label %31 unwind label %34

31:                                               ; preds = %25
  invoke void @_ZN15NavMeshTileToolC2Ev(ptr noundef nonnull align 8 dereferenceable(29) %30)
          to label %32 unwind label %38

32:                                               ; preds = %31
  invoke void @_ZN6Sample7setToolEP10SampleTool(ptr noundef nonnull align 8 dereferenceable(200) %5, ptr noundef %30)
          to label %33 unwind label %34

33:                                               ; preds = %32
  ret void

34:                                               ; preds = %32, %25, %21, %1
  %35 = landingpad { ptr, i32 }
          cleanup
  %36 = extractvalue { ptr, i32 } %35, 0
  store ptr %36, ptr %3, align 8
  %37 = extractvalue { ptr, i32 } %35, 1
  store i32 %37, ptr %4, align 4
  br label %42

38:                                               ; preds = %31
  %39 = landingpad { ptr, i32 }
          cleanup
  %40 = extractvalue { ptr, i32 } %39, 0
  store ptr %40, ptr %3, align 8
  %41 = extractvalue { ptr, i32 } %39, 1
  store i32 %41, ptr %4, align 4
  call void @_ZdlPv(ptr noundef %30) #10
  br label %42

42:                                               ; preds = %38, %34
  call void @_ZN6SampleD2Ev(ptr noundef nonnull align 8 dereferenceable(200) %5) #9
  br label %43

43:                                               ; preds = %42
  %44 = load ptr, ptr %3, align 8
  %45 = load i32, ptr %4, align 4
  %46 = insertvalue { ptr, i32 } poison, ptr %44, 0
  %47 = insertvalue { ptr, i32 } %46, i32 %45, 1
  resume { ptr, i32 } %47
}