; Function Attrs: mustprogress uwtable
define dso_local void @_ZN15Sample_TileMeshC2Ev(ptr noundef nonnull align 8 dereferenceable(404) %0) unnamed_addr #3 align 2 personality ptr @__gxx_personality_v0 {
  tail call void @_ZN6SampleC2Ev(ptr noundef nonnull align 8 dereferenceable(200) %0)
  store ptr getelementptr inbounds ({ [23 x ptr] }, ptr @_ZTV15Sample_TileMesh, i64 0, i32 0, i64 2), ptr %0, align 8
  %2 = getelementptr inbounds i8, ptr %0, i64 200
  store i8 0, ptr %2, align 8
  %3 = getelementptr inbounds i8, ptr %0, i64 201
  store i8 1, ptr %3, align 1
  %4 = getelementptr inbounds i8, ptr %0, i64 204
  %5 = getelementptr inbounds i8, ptr %0, i64 348
  store i32 0, ptr %5, align 4
  %6 = getelementptr inbounds i8, ptr %0, i64 352
  store i32 0, ptr %6, align 8
  %7 = getelementptr inbounds i8, ptr %0, i64 356
  store i32 0, ptr %7, align 4
  %8 = getelementptr inbounds i8, ptr %0, i64 360
  tail call void @llvm.memset.p0.i64(ptr noundef nonnull align 4 dereferenceable(52) %4, i8 0, i64 52, i1 false)
  store float 3.200000e+01, ptr %8, align 8
  %9 = getelementptr inbounds i8, ptr %0, i64 364
  store i32 536870912, ptr %9, align 4
  %10 = getelementptr inbounds i8, ptr %0, i64 392
  store <2 x float> zeroinitializer, ptr %10, align 8
  %11 = getelementptr inbounds i8, ptr %0, i64 400
  store i32 0, ptr %11, align 8
  invoke void @_ZN6Sample19resetCommonSettingsEv(ptr noundef nonnull align 8 dereferenceable(200) %0)
          to label %12 unwind label %18

12:                                               ; preds = %1
  %13 = getelementptr inbounds i8, ptr %0, i64 368
  tail call void @llvm.memset.p0.i64(ptr noundef nonnull align 8 dereferenceable(24) %13, i8 0, i64 24, i1 false)
  %14 = invoke noalias noundef nonnull dereferenceable(32) ptr @_Znwm(i64 noundef 32) #14
          to label %15 unwind label %18

15:                                               ; preds = %12
  store ptr getelementptr inbounds ({ [14 x ptr] }, ptr @_ZTV15NavMeshTileTool, i64 0, i32 0, i64 2), ptr %14, align 8
  %16 = getelementptr inbounds i8, ptr %14, i64 8
  tail call void @llvm.memset.p0.i64(ptr noundef nonnull align 8 dereferenceable(21) %16, i8 0, i64 21, i1 false)
  invoke void @_ZN6Sample7setToolEP10SampleTool(ptr noundef nonnull align 8 dereferenceable(200) %0, ptr noundef nonnull %14)
          to label %17 unwind label %18

17:                                               ; preds = %15
  ret void

18:                                               ; preds = %15, %12, %1
  %19 = landingpad { ptr, i32 }
          cleanup
  tail call void @_ZN6SampleD2Ev(ptr noundef nonnull align 8 dereferenceable(200) %0) #12
  resume { ptr, i32 } %19
}